target datalayout = "e-m:e-p270:32:32-p271:32:32-p272:64:64-i64:64-i128:128-f80:128-n8:16:32:64-S128"
target triple = "x86_64-unknown-linux-gnu"

%"class.std::__shared_count" = type { ptr }
%"class.openvdb::v11_0::math::Vec3" = type { %"class.openvdb::v11_0::math::Tuple" }
%"class.openvdb::v11_0::math::Tuple" = type { [3 x double] }
%"class.std::shared_ptr.71" = type { %"class.std::__shared_ptr.72" }
%"class.std::__shared_ptr.72" = type { ptr, %"class.std::__shared_count" }
%"class.openvdb::v11_0::math::BBox" = type { %"class.openvdb::v11_0::math::Vec3", %"class.openvdb::v11_0::math::Vec3" }

; Function Attrs: mustprogress nounwind uwtable
define linkonce_odr void @_ZN7openvdb5v11_04math4Vec3IdEC2Ed(ptr noundef nonnull align 8 dereferenceable(24) %this, double noundef %val) unnamed_addr #5 comdat align 2 {
entry:
  %this.addr = alloca ptr, align 8
  %val.addr = alloca double, align 8
  store ptr %this, ptr %this.addr, align 8
  store double %val, ptr %val.addr, align 8
  %this1 = load ptr, ptr %this.addr, align 8
  %0 = load double, ptr %val.addr, align 8
  %mm = getelementptr inbounds %"class.openvdb::v11_0::math::Tuple", ptr %this1, i32 0, i32 0
  %arrayidx = getelementptr inbounds [3 x double], ptr %mm, i64 0, i64 2
  store double %0, ptr %arrayidx, align 8
  %mm2 = getelementptr inbounds %"class.openvdb::v11_0::math::Tuple", ptr %this1, i32 0, i32 0
  %arrayidx3 = getelementptr inbounds [3 x double], ptr %mm2, i64 0, i64 1
  store double %0, ptr %arrayidx3, align 8
  %mm4 = getelementptr inbounds %"class.openvdb::v11_0::math::Tuple", ptr %this1, i32 0, i32 0
  %arrayidx5 = getelementptr inbounds [3 x double], ptr %mm4, i64 0, i64 0
  store double %0, ptr %arrayidx5, align 8
  ret void
}

; Function Attrs: mustprogress nounwind uwtable
define linkonce_odr noundef double @_ZNSt14numeric_limitsIdE3maxEv() #5 comdat align 2 {
entry:
  ret double 0x7FEFFFFFFFFFFFFF
}

; Function Attrs: mustprogress uwtable
define linkonce_odr void @_ZN7openvdb5v11_04math4BBoxINS1_4Vec3IdEEEC2Ev(ptr noundef nonnull align 8 dereferenceable(48) %this) unnamed_addr #4 comdat align 2 {
entry:
  %this.addr = alloca ptr, align 8
  store ptr %this, ptr %this.addr, align 8
  %this1 = load ptr, ptr %this.addr, align 8
  %mMin = getelementptr inbounds %"class.openvdb::v11_0::math::BBox", ptr %this1, i32 0, i32 0
  %call = call noundef double @_ZNSt14numeric_limitsIdE3maxEv() #3
  call void @_ZN7openvdb5v11_04math4Vec3IdEC2Ed(ptr noundef nonnull align 8 dereferenceable(24) %mMin, double noundef %call)
  %mMax = getelementptr inbounds %"class.openvdb::v11_0::math::BBox", ptr %this1, i32 0, i32 1
  %call2 = call noundef double @_ZNSt14numeric_limitsIdE3maxEv() #3
  %fneg = fneg double %call2
  call void @_ZN7openvdb5v11_04math4Vec3IdEC2Ed(ptr noundef nonnull align 8 dereferenceable(24) %mMax, double noundef %fneg)
  ret void
}

; Function Attrs: mustprogress uwtable
define void @_ZN7openvdb5v11_02io4File8readGridERKNSt7__cxx1112basic_stringIcSt11char_traitsIcESaIcEEE(ptr noalias sret(%"class.std::shared_ptr.71") align 8 %agg.result, ptr noundef nonnull align 8 dereferenceable(80) %this, ptr noundef nonnull align 8 dereferenceable(32) %name) #4 align 2 {
entry:
  %result.ptr = alloca ptr, align 8
  %this.addr = alloca ptr, align 8
  %name.addr = alloca ptr, align 8
  %ref.tmp = alloca %"class.openvdb::v11_0::math::BBox", align 8
  store ptr %agg.result, ptr %result.ptr, align 8
  store ptr %this, ptr %this.addr, align 8
  store ptr %name, ptr %name.addr, align 8
  %this1 = load ptr, ptr %this.addr, align 8
  %0 = load ptr, ptr %name.addr, align 8
  call void @_ZN7openvdb5v11_04math4BBoxINS1_4Vec3IdEEEC2Ev(ptr noundef nonnull align 8 dereferenceable(48) %ref.tmp)
  call void @_ZN7openvdb5v11_02io4File14readGridByNameERKNSt7__cxx1112basic_stringIcSt11char_traitsIcESaIcEEERKNS0_4math4BBoxINSB_4Vec3IdEEEE(ptr sret(%"class.std::shared_ptr.71") align 8 %agg.result, ptr noundef nonnull align 8 dereferenceable(80) %this1, ptr noundef nonnull align 8 dereferenceable(32) %0, ptr noundef nonnull align 8 dereferenceable(48) %ref.tmp)
  ret void
}