; Function Attrs: mustprogress uwtable
define void @_ZN7openvdb5v11_02io4File8readGridERKNSt7__cxx1112basic_stringIcSt11char_traitsIcESaIcEEE(ptr noalias sret(%"class.std::shared_ptr.71") align 8 %agg.result, ptr noundef nonnull align 8 dereferenceable(80) %this, ptr noundef nonnull align 8 dereferenceable(32) %name) local_unnamed_addr #5 align 2 {
entry:
  %ref.tmp = alloca %"class.openvdb::v11_0::math::BBox", align 16
  %arrayidx.i.i = getelementptr inbounds i8, ptr %ref.tmp, i64 16
  store <2 x double> <double 0x7FEFFFFFFFFFFFFF, double 0x7FEFFFFFFFFFFFFF>, ptr %ref.tmp, align 16
  %arrayidx3.i2.i = getelementptr inbounds i8, ptr %ref.tmp, i64 32
  store <2 x double> <double 0xFFEFFFFFFFFFFFFF, double 0xFFEFFFFFFFFFFFFF>, ptr %arrayidx3.i2.i, align 16
  store <2 x double> <double 0x7FEFFFFFFFFFFFFF, double 0xFFEFFFFFFFFFFFFF>, ptr %arrayidx.i.i, align 16
  call void @_ZN7openvdb5v11_02io4File14readGridByNameERKNSt7__cxx1112basic_stringIcSt11char_traitsIcESaIcEEERKNS0_4math4BBoxINSB_4Vec3IdEEEE(ptr sret(%"class.std::shared_ptr.71") align 8 %agg.result, ptr noundef nonnull align 8 dereferenceable(80) %this, ptr noundef nonnull align 8 dereferenceable(32) %name, ptr noundef nonnull align 8 dereferenceable(48) %ref.tmp)
  ret void
}